target datalayout = "e-m:e-p270:32:32-p271:32:32-p272:64:64-i64:64-i128:128-f80:128-n8:16:32:64-S128"
target triple = "x86_64-pc-linux-gnu"

%struct.slurm_cred_t = type { i32, %union.pthread_rwlock_t, ptr, i32, i16, ptr, i64, ptr, i8 }
%union.pthread_rwlock_t = type { %struct.__pthread_rwlock_arch_t }
%struct.__pthread_rwlock_arch_t = type { i32, i32, i32, i32, i32, i32, i32, i32, i8, [7 x i8], i64, i32 }

@.str.17 = private unnamed_addr constant [32 x i8] c"%s: pthread_rwlock_unlock(): %m\00", align 1
@.str.18 = private unnamed_addr constant [32 x i8] c"%s: pthread_rwlock_rdlock(): %m\00", align 1
@__func__.slurm_cred_pack = private unnamed_addr constant [16 x i8] c"slurm_cred_pack\00", align 1

; Function Attrs: nounwind uwtable
define dso_local void @slurm_cred_pack(ptr noundef %0, ptr noundef %1, i16 noundef zeroext %2) #0 {
  %4 = alloca ptr, align 8
  %5 = alloca ptr, align 8
  %6 = alloca i16, align 2
  %7 = alloca i32, align 4
  %8 = alloca i32, align 4
  store ptr %0, ptr %4, align 8
  store ptr %1, ptr %5, align 8
  store i16 %2, ptr %6, align 2
  br label %9

9:                                                ; preds = %3
  call void @llvm.lifetime.start.p0(i64 4, ptr %7) #9
  %10 = load ptr, ptr %4, align 8
  %11 = getelementptr inbounds nuw %struct.slurm_cred_t, ptr %10, i32 0, i32 1
  %12 = call i32 @pthread_rwlock_rdlock(ptr noundef %11) #9
  store i32 %12, ptr %7, align 4
  %13 = load i32, ptr %7, align 4
  %14 = icmp ne i32 %13, 0
  br i1 %14, label %15, label %18

15:                                               ; preds = %9
  %16 = load i32, ptr %7, align 4
  %17 = call ptr @__errno_location() #11
  store i32 %16, ptr %17, align 4
  call void (ptr, ...) @fatal_abort(ptr noundef @.str.18, ptr noundef @__func__.slurm_cred_pack) #12
  unreachable

18:                                               ; preds = %9
  call void @llvm.lifetime.end.p0(i64 4, ptr %7) #9
  br label %19

19:                                               ; preds = %18
  %20 = load ptr, ptr %4, align 8
  %21 = getelementptr inbounds nuw %struct.slurm_cred_t, ptr %20, i32 0, i32 2
  %22 = load ptr, ptr %21, align 8
  %23 = load ptr, ptr %5, align 8
  call void @packbuf(ptr noundef %22, ptr noundef %23)
  br label %24

24:                                               ; preds = %19
  call void @llvm.lifetime.start.p0(i64 4, ptr %8) #9
  %25 = load ptr, ptr %4, align 8
  %26 = getelementptr inbounds nuw %struct.slurm_cred_t, ptr %25, i32 0, i32 1
  %27 = call i32 @pthread_rwlock_unlock(ptr noundef %26) #9
  store i32 %27, ptr %8, align 4
  %28 = load i32, ptr %8, align 4
  %29 = icmp ne i32 %28, 0
  br i1 %29, label %30, label %33

30:                                               ; preds = %24
  %31 = load i32, ptr %8, align 4
  %32 = call ptr @__errno_location() #11
  store i32 %31, ptr %32, align 4
  call void (ptr, ...) @fatal_abort(ptr noundef @.str.17, ptr noundef @__func__.slurm_cred_pack) #12
  unreachable

33:                                               ; preds = %24
  call void @llvm.lifetime.end.p0(i64 4, ptr %8) #9
  br label %34

34:                                               ; preds = %33
  ret void
}