; Function Attrs: nounwind uwtable
define dso_local void @slurm_cred_pack(ptr noundef %0, ptr noundef %1, i16 noundef zeroext %2) local_unnamed_addr #0 {
  %4 = getelementptr inbounds nuw i8, ptr %0, i64 8
  %5 = tail call i32 @pthread_rwlock_rdlock(ptr noundef nonnull %4) #11
  %.not = icmp eq i32 %5, 0
  br i1 %.not, label %8, label %6

6:                                                ; preds = %3
  %7 = tail call ptr @__errno_location() #12
  store i32 %5, ptr %7, align 4
  tail call void (ptr, ...) @fatal_abort(ptr noundef nonnull @.str.18, ptr noundef nonnull @__func__.slurm_cred_pack) #13
  unreachable

8:                                                ; preds = %3
  %9 = getelementptr inbounds nuw i8, ptr %0, i64 64
  %10 = load ptr, ptr %9, align 8
  tail call void @packbuf(ptr noundef %10, ptr noundef %1) #11
  %11 = tail call i32 @pthread_rwlock_unlock(ptr noundef nonnull %4) #11
  %.not8 = icmp eq i32 %11, 0
  br i1 %.not8, label %14, label %12

12:                                               ; preds = %8
  %13 = tail call ptr @__errno_location() #12
  store i32 %11, ptr %13, align 4
  tail call void (ptr, ...) @fatal_abort(ptr noundef nonnull @.str.17, ptr noundef nonnull @__func__.slurm_cred_pack) #13
  unreachable

14:                                               ; preds = %8
  ret void
}